target datalayout = "e-m:e-p270:32:32-p271:32:32-p272:64:64-i64:64-i128:128-f80:128-n8:16:32:64-S128"
target triple = "x86_64-pc-linux-gnu"

%struct.gz_state = type { %struct.gzFile_s, i32, i32, ptr, i32, i32, ptr, ptr, i32, i32, i64, i32, i32, i32, i32, i32, i64, i32, i32, ptr, %struct.z_stream_s }
%struct.gzFile_s = type { i32, ptr, i64 }
%struct.z_stream_s = type { ptr, i32, i64, ptr, i32, i64, ptr, ptr, ptr, ptr, ptr, i32, i64, i64 }

; Function Attrs: nounwind uwtable
define internal i32 @gz_zero(ptr noundef %0, i64 noundef %1) #0 {
  %3 = alloca i32, align 4
  %4 = alloca ptr, align 8
  %5 = alloca i64, align 8
  %6 = alloca i32, align 4
  %7 = alloca i32, align 4
  %8 = alloca ptr, align 8
  %9 = alloca i32, align 4
  store ptr %0, ptr %4, align 8, !tbaa !9
  store i64 %1, ptr %5, align 8, !tbaa !20
  call void @llvm.lifetime.start.p0(i64 4, ptr %6) #10
  call void @llvm.lifetime.start.p0(i64 4, ptr %7) #10
  call void @llvm.lifetime.start.p0(i64 8, ptr %8) #10
  %10 = load ptr, ptr %4, align 8, !tbaa !9
  %11 = getelementptr inbounds nuw %struct.gz_state, ptr %10, i32 0, i32 20
  store ptr %11, ptr %8, align 8, !tbaa !31
  %12 = load ptr, ptr %8, align 8, !tbaa !31
  %13 = getelementptr inbounds nuw %struct.z_stream_s, ptr %12, i32 0, i32 1
  %14 = load i32, ptr %13, align 8, !tbaa !33
  %15 = icmp ne i32 %14, 0
  br i1 %15, label %16, label %21

16:                                               ; preds = %2
  %17 = load ptr, ptr %4, align 8, !tbaa !9
  %18 = call i32 @gz_comp(ptr noundef %17, i32 noundef 0)
  %19 = icmp eq i32 %18, -1
  br i1 %19, label %20, label %21

20:                                               ; preds = %16
  store i32 -1, ptr %3, align 4
  store i32 1, ptr %9, align 4
  br label %75

21:                                               ; preds = %16, %2
  store i32 1, ptr %6, align 4, !tbaa !10
  br label %22

22:                                               ; preds = %69, %21
  %23 = load i64, ptr %5, align 8, !tbaa !20
  %24 = icmp ne i64 %23, 0
  br i1 %24, label %25, label %74

25:                                               ; preds = %22
  %26 = load ptr, ptr %4, align 8, !tbaa !9
  %27 = getelementptr inbounds nuw %struct.gz_state, ptr %26, i32 0, i32 4
  %28 = load i32, ptr %27, align 8, !tbaa !21
  %29 = zext i32 %28 to i64
  %30 = load i64, ptr %5, align 8, !tbaa !20
  %31 = icmp sgt i64 %29, %30
  br i1 %31, label %32, label %35

32:                                               ; preds = %25
  %33 = load i64, ptr %5, align 8, !tbaa !20
  %34 = trunc i64 %33 to i32
  br label %39

35:                                               ; preds = %25
  %36 = load ptr, ptr %4, align 8, !tbaa !9
  %37 = getelementptr inbounds nuw %struct.gz_state, ptr %36, i32 0, i32 4
  %38 = load i32, ptr %37, align 8, !tbaa !21
  br label %39

39:                                               ; preds = %35, %32
  %40 = phi i32 [ %34, %32 ], [ %38, %35 ]
  store i32 %40, ptr %7, align 4, !tbaa !10
  %41 = load i32, ptr %6, align 4, !tbaa !10
  %42 = icmp ne i32 %41, 0
  br i1 %42, label %43, label %49

43:                                               ; preds = %39
  %44 = load ptr, ptr %4, align 8, !tbaa !9
  %45 = getelementptr inbounds nuw %struct.gz_state, ptr %44, i32 0, i32 6
  %46 = load ptr, ptr %45, align 8, !tbaa !25
  %47 = load i32, ptr %7, align 4, !tbaa !10
  %48 = zext i32 %47 to i64
  call void @llvm.memset.p0.i64(ptr align 1 %46, i8 0, i64 %48, i1 false)
  store i32 0, ptr %6, align 4, !tbaa !10
  br label %49

49:                                               ; preds = %43, %39
  %50 = load i32, ptr %7, align 4, !tbaa !10
  %51 = load ptr, ptr %8, align 8, !tbaa !31
  %52 = getelementptr inbounds nuw %struct.z_stream_s, ptr %51, i32 0, i32 1
  store i32 %50, ptr %52, align 8, !tbaa !33
  %53 = load ptr, ptr %4, align 8, !tbaa !9
  %54 = getelementptr inbounds nuw %struct.gz_state, ptr %53, i32 0, i32 6
  %55 = load ptr, ptr %54, align 8, !tbaa !25
  %56 = load ptr, ptr %8, align 8, !tbaa !31
  %57 = getelementptr inbounds nuw %struct.z_stream_s, ptr %56, i32 0, i32 0
  store ptr %55, ptr %57, align 8, !tbaa !34
  %58 = load i32, ptr %7, align 4, !tbaa !10
  %59 = zext i32 %58 to i64
  %60 = load ptr, ptr %4, align 8, !tbaa !9
  %61 = getelementptr inbounds nuw %struct.gz_state, ptr %60, i32 0, i32 0
  %62 = getelementptr inbounds nuw %struct.gzFile_s, ptr %61, i32 0, i32 2
  %63 = load i64, ptr %62, align 8, !tbaa !27
  %64 = add nsw i64 %63, %59
  store i64 %64, ptr %62, align 8, !tbaa !27
  %65 = load ptr, ptr %4, align 8, !tbaa !9
  %66 = call i32 @gz_comp(ptr noundef %65, i32 noundef 0)
  %67 = icmp eq i32 %66, -1
  br i1 %67, label %68, label %69

68:                                               ; preds = %49
  store i32 -1, ptr %3, align 4
  store i32 1, ptr %9, align 4
  br label %75

69:                                               ; preds = %49
  %70 = load i32, ptr %7, align 4, !tbaa !10
  %71 = zext i32 %70 to i64
  %72 = load i64, ptr %5, align 8, !tbaa !20
  %73 = sub nsw i64 %72, %71
  store i64 %73, ptr %5, align 8, !tbaa !20
  br label %22, !llvm.loop !36

74:                                               ; preds = %22
  store i32 0, ptr %3, align 4
  store i32 1, ptr %9, align 4
  br label %75

75:                                               ; preds = %74, %68, %20
  call void @llvm.lifetime.end.p0(i64 8, ptr %8) #10
  call void @llvm.lifetime.end.p0(i64 4, ptr %7) #10
  call void @llvm.lifetime.end.p0(i64 4, ptr %6) #10
  %76 = load i32, ptr %3, align 4
  ret i32 %76
}

; Function Attrs: nounwind uwtable
define dso_local i32 @cm_zlib_gzvprintf(ptr noundef %0, ptr noundef %1, ptr noundef %2) #0 {
  %4 = alloca i32, align 4
  %5 = alloca ptr, align 8
  %6 = alloca ptr, align 8
  %7 = alloca ptr, align 8
  %8 = alloca i32, align 4
  %9 = alloca i32, align 4
  %10 = alloca ptr, align 8
  %11 = alloca ptr, align 8
  %12 = alloca ptr, align 8
  %13 = alloca i32, align 4
  store ptr %0, ptr %5, align 8, !tbaa !4
  store ptr %1, ptr %6, align 8, !tbaa !37
  store ptr %2, ptr %7, align 8, !tbaa !38
  call void @llvm.lifetime.start.p0(i64 4, ptr %8) #10
  call void @llvm.lifetime.start.p0(i64 4, ptr %9) #10
  call void @llvm.lifetime.start.p0(i64 8, ptr %10) #10
  call void @llvm.lifetime.start.p0(i64 8, ptr %11) #10
  call void @llvm.lifetime.start.p0(i64 8, ptr %12) #10
  %14 = load ptr, ptr %5, align 8, !tbaa !4
  %15 = icmp eq ptr %14, null
  br i1 %15, label %16, label %17

16:                                               ; preds = %3
  store i32 -2, ptr %4, align 4
  store i32 1, ptr %13, align 4
  br label %192

17:                                               ; preds = %3
  %18 = load ptr, ptr %5, align 8, !tbaa !4
  store ptr %18, ptr %11, align 8, !tbaa !9
  %19 = load ptr, ptr %11, align 8, !tbaa !9
  %20 = getelementptr inbounds nuw %struct.gz_state, ptr %19, i32 0, i32 20
  store ptr %20, ptr %12, align 8, !tbaa !31
  %21 = load ptr, ptr %11, align 8, !tbaa !9
  %22 = getelementptr inbounds nuw %struct.gz_state, ptr %21, i32 0, i32 1
  %23 = load i32, ptr %22, align 8, !tbaa !12
  %24 = icmp ne i32 %23, 31153
  br i1 %24, label %30, label %25

25:                                               ; preds = %17
  %26 = load ptr, ptr %11, align 8, !tbaa !9
  %27 = getelementptr inbounds nuw %struct.gz_state, ptr %26, i32 0, i32 18
  %28 = load i32, ptr %27, align 4, !tbaa !19
  %29 = icmp ne i32 %28, 0
  br i1 %29, label %30, label %31

30:                                               ; preds = %25, %17
  store i32 -2, ptr %4, align 4
  store i32 1, ptr %13, align 4
  br label %192

31:                                               ; preds = %25
  %32 = load ptr, ptr %11, align 8, !tbaa !9
  %33 = getelementptr inbounds nuw %struct.gz_state, ptr %32, i32 0, i32 4
  %34 = load i32, ptr %33, align 8, !tbaa !21
  %35 = icmp eq i32 %34, 0
  br i1 %35, label %36, label %44

36:                                               ; preds = %31
  %37 = load ptr, ptr %11, align 8, !tbaa !9
  %38 = call i32 @gz_init(ptr noundef %37)
  %39 = icmp eq i32 %38, -1
  br i1 %39, label %40, label %44

40:                                               ; preds = %36
  %41 = load ptr, ptr %11, align 8, !tbaa !9
  %42 = getelementptr inbounds nuw %struct.gz_state, ptr %41, i32 0, i32 18
  %43 = load i32, ptr %42, align 4, !tbaa !19
  store i32 %43, ptr %4, align 4
  store i32 1, ptr %13, align 4
  br label %192

44:                                               ; preds = %36, %31
  %45 = load ptr, ptr %11, align 8, !tbaa !9
  %46 = getelementptr inbounds nuw %struct.gz_state, ptr %45, i32 0, i32 17
  %47 = load i32, ptr %46, align 8, !tbaa !22
  %48 = icmp ne i32 %47, 0
  br i1 %48, label %49, label %63

49:                                               ; preds = %44
  %50 = load ptr, ptr %11, align 8, !tbaa !9
  %51 = getelementptr inbounds nuw %struct.gz_state, ptr %50, i32 0, i32 17
  store i32 0, ptr %51, align 8, !tbaa !22
  %52 = load ptr, ptr %11, align 8, !tbaa !9
  %53 = load ptr, ptr %11, align 8, !tbaa !9
  %54 = getelementptr inbounds nuw %struct.gz_state, ptr %53, i32 0, i32 16
  %55 = load i64, ptr %54, align 8, !tbaa !23
  %56 = call i32 @gz_zero(ptr noundef %52, i64 noundef %55)
  %57 = icmp eq i32 %56, -1
  br i1 %57, label %58, label %62

58:                                               ; preds = %49
  %59 = load ptr, ptr %11, align 8, !tbaa !9
  %60 = getelementptr inbounds nuw %struct.gz_state, ptr %59, i32 0, i32 18
  %61 = load i32, ptr %60, align 4, !tbaa !19
  store i32 %61, ptr %4, align 4
  store i32 1, ptr %13, align 4
  br label %192

62:                                               ; preds = %49
  br label %63

63:                                               ; preds = %62, %44
  %64 = load ptr, ptr %12, align 8, !tbaa !31
  %65 = getelementptr inbounds nuw %struct.z_stream_s, ptr %64, i32 0, i32 1
  %66 = load i32, ptr %65, align 8, !tbaa !33
  %67 = icmp eq i32 %66, 0
  br i1 %67, label %68, label %74

68:                                               ; preds = %63
  %69 = load ptr, ptr %11, align 8, !tbaa !9
  %70 = getelementptr inbounds nuw %struct.gz_state, ptr %69, i32 0, i32 6
  %71 = load ptr, ptr %70, align 8, !tbaa !25
  %72 = load ptr, ptr %12, align 8, !tbaa !31
  %73 = getelementptr inbounds nuw %struct.z_stream_s, ptr %72, i32 0, i32 0
  store ptr %71, ptr %73, align 8, !tbaa !34
  br label %74

74:                                               ; preds = %68, %63
  %75 = load ptr, ptr %11, align 8, !tbaa !9
  %76 = getelementptr inbounds nuw %struct.gz_state, ptr %75, i32 0, i32 6
  %77 = load ptr, ptr %76, align 8, !tbaa !25
  %78 = load ptr, ptr %12, align 8, !tbaa !31
  %79 = getelementptr inbounds nuw %struct.z_stream_s, ptr %78, i32 0, i32 0
  %80 = load ptr, ptr %79, align 8, !tbaa !34
  %81 = load ptr, ptr %11, align 8, !tbaa !9
  %82 = getelementptr inbounds nuw %struct.gz_state, ptr %81, i32 0, i32 6
  %83 = load ptr, ptr %82, align 8, !tbaa !25
  %84 = ptrtoint ptr %80 to i64
  %85 = ptrtoint ptr %83 to i64
  %86 = sub i64 %84, %85
  %87 = getelementptr inbounds i8, ptr %77, i64 %86
  %88 = load ptr, ptr %12, align 8, !tbaa !31
  %89 = getelementptr inbounds nuw %struct.z_stream_s, ptr %88, i32 0, i32 1
  %90 = load i32, ptr %89, align 8, !tbaa !33
  %91 = zext i32 %90 to i64
  %92 = getelementptr inbounds nuw i8, ptr %87, i64 %91
  store ptr %92, ptr %10, align 8, !tbaa !37
  %93 = load ptr, ptr %10, align 8, !tbaa !37
  %94 = load ptr, ptr %11, align 8, !tbaa !9
  %95 = getelementptr inbounds nuw %struct.gz_state, ptr %94, i32 0, i32 4
  %96 = load i32, ptr %95, align 8, !tbaa !21
  %97 = sub i32 %96, 1
  %98 = zext i32 %97 to i64
  %99 = getelementptr inbounds nuw i8, ptr %93, i64 %98
  store i8 0, ptr %99, align 1, !tbaa !35
  %100 = load ptr, ptr %10, align 8, !tbaa !37
  %101 = load ptr, ptr %11, align 8, !tbaa !9
  %102 = getelementptr inbounds nuw %struct.gz_state, ptr %101, i32 0, i32 4
  %103 = load i32, ptr %102, align 8, !tbaa !21
  %104 = zext i32 %103 to i64
  %105 = load ptr, ptr %6, align 8, !tbaa !37
  %106 = load ptr, ptr %7, align 8, !tbaa !38
  %107 = call i32 @vsnprintf(ptr noundef %100, i64 noundef %104, ptr noundef %105, ptr noundef %106) #10
  store i32 %107, ptr %8, align 4, !tbaa !10
  %108 = load i32, ptr %8, align 4, !tbaa !10
  %109 = icmp eq i32 %108, 0
  br i1 %109, label %127, label %110

110:                                              ; preds = %74
  %111 = load i32, ptr %8, align 4, !tbaa !10
  %112 = load ptr, ptr %11, align 8, !tbaa !9
  %113 = getelementptr inbounds nuw %struct.gz_state, ptr %112, i32 0, i32 4
  %114 = load i32, ptr %113, align 8, !tbaa !21
  %115 = icmp uge i32 %111, %114
  br i1 %115, label %127, label %116

116:                                              ; preds = %110
  %117 = load ptr, ptr %10, align 8, !tbaa !37
  %118 = load ptr, ptr %11, align 8, !tbaa !9
  %119 = getelementptr inbounds nuw %struct.gz_state, ptr %118, i32 0, i32 4
  %120 = load i32, ptr %119, align 8, !tbaa !21
  %121 = sub i32 %120, 1
  %122 = zext i32 %121 to i64
  %123 = getelementptr inbounds nuw i8, ptr %117, i64 %122
  %124 = load i8, ptr %123, align 1, !tbaa !35
  %125 = sext i8 %124 to i32
  %126 = icmp ne i32 %125, 0
  br i1 %126, label %127, label %128

127:                                              ; preds = %116, %110, %74
  store i32 0, ptr %4, align 4
  store i32 1, ptr %13, align 4
  br label %192

128:                                              ; preds = %116
  %129 = load i32, ptr %8, align 4, !tbaa !10
  %130 = load ptr, ptr %12, align 8, !tbaa !31
  %131 = getelementptr inbounds nuw %struct.z_stream_s, ptr %130, i32 0, i32 1
  %132 = load i32, ptr %131, align 8, !tbaa !33
  %133 = add i32 %132, %129
  store i32 %133, ptr %131, align 8, !tbaa !33
  %134 = load i32, ptr %8, align 4, !tbaa !10
  %135 = sext i32 %134 to i64
  %136 = load ptr, ptr %11, align 8, !tbaa !9
  %137 = getelementptr inbounds nuw %struct.gz_state, ptr %136, i32 0, i32 0
  %138 = getelementptr inbounds nuw %struct.gzFile_s, ptr %137, i32 0, i32 2
  %139 = load i64, ptr %138, align 8, !tbaa !27
  %140 = add nsw i64 %139, %135
  store i64 %140, ptr %138, align 8, !tbaa !27
  %141 = load ptr, ptr %12, align 8, !tbaa !31
  %142 = getelementptr inbounds nuw %struct.z_stream_s, ptr %141, i32 0, i32 1
  %143 = load i32, ptr %142, align 8, !tbaa !33
  %144 = load ptr, ptr %11, align 8, !tbaa !9
  %145 = getelementptr inbounds nuw %struct.gz_state, ptr %144, i32 0, i32 4
  %146 = load i32, ptr %145, align 8, !tbaa !21
  %147 = icmp uge i32 %143, %146
  br i1 %147, label %148, label %190

148:                                              ; preds = %128
  %149 = load ptr, ptr %12, align 8, !tbaa !31
  %150 = getelementptr inbounds nuw %struct.z_stream_s, ptr %149, i32 0, i32 1
  %151 = load i32, ptr %150, align 8, !tbaa !33
  %152 = load ptr, ptr %11, align 8, !tbaa !9
  %153 = getelementptr inbounds nuw %struct.gz_state, ptr %152, i32 0, i32 4
  %154 = load i32, ptr %153, align 8, !tbaa !21
  %155 = sub i32 %151, %154
  store i32 %155, ptr %9, align 4, !tbaa !10
  %156 = load ptr, ptr %11, align 8, !tbaa !9
  %157 = getelementptr inbounds nuw %struct.gz_state, ptr %156, i32 0, i32 4
  %158 = load i32, ptr %157, align 8, !tbaa !21
  %159 = load ptr, ptr %12, align 8, !tbaa !31
  %160 = getelementptr inbounds nuw %struct.z_stream_s, ptr %159, i32 0, i32 1
  store i32 %158, ptr %160, align 8, !tbaa !33
  %161 = load ptr, ptr %11, align 8, !tbaa !9
  %162 = call i32 @gz_comp(ptr noundef %161, i32 noundef 0)
  %163 = icmp eq i32 %162, -1
  br i1 %163, label %164, label %168

164:                                              ; preds = %148
  %165 = load ptr, ptr %11, align 8, !tbaa !9
  %166 = getelementptr inbounds nuw %struct.gz_state, ptr %165, i32 0, i32 18
  %167 = load i32, ptr %166, align 4, !tbaa !19
  store i32 %167, ptr %4, align 4
  store i32 1, ptr %13, align 4
  br label %192

168:                                              ; preds = %148
  %169 = load ptr, ptr %11, align 8, !tbaa !9
  %170 = getelementptr inbounds nuw %struct.gz_state, ptr %169, i32 0, i32 6
  %171 = load ptr, ptr %170, align 8, !tbaa !25
  %172 = load ptr, ptr %11, align 8, !tbaa !9
  %173 = getelementptr inbounds nuw %struct.gz_state, ptr %172, i32 0, i32 6
  %174 = load ptr, ptr %173, align 8, !tbaa !25
  %175 = load ptr, ptr %11, align 8, !tbaa !9
  %176 = getelementptr inbounds nuw %struct.gz_state, ptr %175, i32 0, i32 4
  %177 = load i32, ptr %176, align 8, !tbaa !21
  %178 = zext i32 %177 to i64
  %179 = getelementptr inbounds nuw i8, ptr %174, i64 %178
  %180 = load i32, ptr %9, align 4, !tbaa !10
  %181 = zext i32 %180 to i64
  call void @llvm.memmove.p0.p0.i64(ptr align 1 %171, ptr align 1 %179, i64 %181, i1 false)
  %182 = load ptr, ptr %11, align 8, !tbaa !9
  %183 = getelementptr inbounds nuw %struct.gz_state, ptr %182, i32 0, i32 6
  %184 = load ptr, ptr %183, align 8, !tbaa !25
  %185 = load ptr, ptr %12, align 8, !tbaa !31
  %186 = getelementptr inbounds nuw %struct.z_stream_s, ptr %185, i32 0, i32 0
  store ptr %184, ptr %186, align 8, !tbaa !34
  %187 = load i32, ptr %9, align 4, !tbaa !10
  %188 = load ptr, ptr %12, align 8, !tbaa !31
  %189 = getelementptr inbounds nuw %struct.z_stream_s, ptr %188, i32 0, i32 1
  store i32 %187, ptr %189, align 8, !tbaa !33
  br label %190

190:                                              ; preds = %168, %128
  %191 = load i32, ptr %8, align 4, !tbaa !10
  store i32 %191, ptr %4, align 4
  store i32 1, ptr %13, align 4
  br label %192

192:                                              ; preds = %190, %164, %127, %58, %40, %30, %16
  call void @llvm.lifetime.end.p0(i64 8, ptr %12) #10
  call void @llvm.lifetime.end.p0(i64 8, ptr %11) #10
  call void @llvm.lifetime.end.p0(i64 8, ptr %10) #10
  call void @llvm.lifetime.end.p0(i64 4, ptr %9) #10
  call void @llvm.lifetime.end.p0(i64 4, ptr %8) #10
  %193 = load i32, ptr %4, align 4
  ret i32 %193
}